target datalayout = "e-m:e-p270:32:32-p271:32:32-p272:64:64-i64:64-i128:128-f80:128-n8:16:32:64-S128"
target triple = "x86_64-pc-linux-gnu"

%"class.llvm::cl::Option" = type { ptr, i16, i16, i16, i16, %"class.llvm::StringRef", %"class.llvm::StringRef", %"class.llvm::StringRef", %"class.llvm::SmallVector", %"class.llvm::SmallPtrSet" }
%"class.llvm::StringRef" = type { ptr, i64 }
%"class.llvm::SmallVector" = type { %"class.llvm::SmallVectorImpl", %"struct.llvm::SmallVectorStorage" }
%"class.llvm::SmallVectorImpl" = type { %"class.llvm::SmallVectorTemplateBase" }
%"class.llvm::SmallVectorTemplateBase" = type { %"class.llvm::SmallVectorTemplateCommon" }
%"class.llvm::SmallVectorTemplateCommon" = type { %"class.llvm::SmallVectorBase" }
%"class.llvm::SmallVectorBase" = type { ptr, i32, i32 }
%"struct.llvm::SmallVectorStorage" = type { [8 x i8] }
%"class.llvm::SmallPtrSet" = type { %"class.llvm::SmallPtrSetImpl.base", [1 x ptr] }
%"class.llvm::SmallPtrSetImpl.base" = type { %"class.llvm::SmallPtrSetImplBase.base" }
%"class.llvm::SmallPtrSetImplBase.base" = type <{ ptr, ptr, i32, i32, i32 }>
%"struct.llvm::cl::GenericOptionValue" = type { ptr }
%"class.llvm::cl::basic_parser_impl" = type { ptr }
%"class.std::_Function_base" = type { %"union.std::_Any_data", ptr }
%"union.std::_Any_data" = type { %"union.std::_Nocopy_types" }
%"union.std::_Nocopy_types" = type { { i64, i64 } }
%"class.llvm::cl::opt.0" = type { %"class.llvm::cl::Option", %"class.llvm::cl::opt_storage.1", %"class.llvm::cl::parser.8", %"class.std::function.10" }
%"class.llvm::cl::opt_storage.1" = type { i32, [4 x i8], %"struct.llvm::cl::OptionValue.2" }
%"struct.llvm::cl::OptionValue.2" = type { %"struct.llvm::cl::OptionValueBase.base.6", [3 x i8] }
%"struct.llvm::cl::OptionValueBase.base.6" = type { %"class.llvm::cl::OptionValueCopy.base.5" }
%"class.llvm::cl::OptionValueCopy.base.5" = type <{ %"struct.llvm::cl::GenericOptionValue", i32, i8 }>
%"class.llvm::cl::parser.8" = type { %"class.llvm::cl::basic_parser.9" }
%"class.llvm::cl::basic_parser.9" = type { %"class.llvm::cl::basic_parser_impl" }
%"class.std::function.10" = type { %"class.std::_Function_base", ptr }
%"class.llvm::BitVector" = type <{ %"class.llvm::SmallVector.52", i32, [4 x i8] }>
%"class.llvm::SmallVector.52" = type { %"class.llvm::SmallVectorImpl.53", %"struct.llvm::SmallVectorStorage.56" }
%"class.llvm::SmallVectorImpl.53" = type { %"class.llvm::SmallVectorTemplateBase.54" }
%"class.llvm::SmallVectorTemplateBase.54" = type { %"class.llvm::SmallVectorTemplateCommon.55" }
%"class.llvm::SmallVectorTemplateCommon.55" = type { %"class.llvm::SmallVectorBase" }
%"struct.llvm::SmallVectorStorage.56" = type { [48 x i8] }
%"class.llvm::InstrItineraryData" = type { %"struct.llvm::MCSchedModel", ptr, ptr, ptr, ptr }
%"struct.llvm::MCSchedModel" = type { i32, i32, i32, i32, i32, i32, i8, i8, i8, i32, ptr, ptr, i32, i32, ptr, ptr }
%"class.llvm::SwingSchedulerDAG" = type { %"class.llvm::ScheduleDAGInstrs", ptr, i32, i32, i8, ptr, ptr, ptr, i32, ptr, %"class.llvm::ScheduleDAGTopologicalSort", %"class.std::vector.471", %"class.llvm::SetVector", %"class.llvm::DenseMap.484", %"class.llvm::DenseMap.487", %"class.std::vector.490" }
%"class.llvm::ScheduleDAGInstrs" = type { %"class.llvm::ScheduleDAG", ptr, ptr, %"class.llvm::TargetSchedModel", i8, i8, i8, ptr, %"class.llvm::MachineInstrBundleIterator", %"class.llvm::MachineInstrBundleIterator", i32, [4 x i8], %"class.llvm::DenseMap.436", %"class.llvm::SparseMultiSet", %"class.llvm::SparseMultiSet", %"class.llvm::SparseMultiSet.444", %"class.llvm::SparseMultiSet.450", ptr, ptr, i32, ptr, %"class.llvm::ScheduleDAGTopologicalSort", %"class.std::vector.466", ptr, %"class.llvm::LiveRegUnits" }
%"class.llvm::ScheduleDAG" = type { ptr, ptr, ptr, ptr, ptr, ptr, %"class.std::vector.420", %"class.llvm::SUnit", %"class.llvm::SUnit" }
%"class.std::vector.420" = type { %"struct.std::_Vector_base.421" }
%"struct.std::_Vector_base.421" = type { %"struct.std::_Vector_base<llvm::SUnit, std::allocator<llvm::SUnit>>::_Vector_impl" }
%"struct.std::_Vector_base<llvm::SUnit, std::allocator<llvm::SUnit>>::_Vector_impl" = type { %"struct.std::_Vector_base<llvm::SUnit, std::allocator<llvm::SUnit>>::_Vector_impl_data" }
%"struct.std::_Vector_base<llvm::SUnit, std::allocator<llvm::SUnit>>::_Vector_impl_data" = type { ptr, ptr, ptr }
%"class.llvm::SUnit" = type <{ %union.anon.425, ptr, ptr, ptr, ptr, %"class.llvm::SmallVector.426", %"class.llvm::SmallVector.426", i32, i32, i32, i32, i32, i32, i32, i32, i32, i32, i32, i32, i16, i16, i16, i8, i8 }>
%union.anon.425 = type { ptr }
%"class.llvm::SmallVector.426" = type { %"class.llvm::SmallVectorImpl.427", %"struct.llvm::SmallVectorStorage.430" }
%"class.llvm::SmallVectorImpl.427" = type { %"class.llvm::SmallVectorTemplateBase.428" }
%"class.llvm::SmallVectorTemplateBase.428" = type { %"class.llvm::SmallVectorTemplateCommon.429" }
%"class.llvm::SmallVectorTemplateCommon.429" = type { %"class.llvm::SmallVectorBase" }
%"struct.llvm::SmallVectorStorage.430" = type { [64 x i8] }
%"class.llvm::TargetSchedModel" = type { %"struct.llvm::MCSchedModel", %"class.llvm::InstrItineraryData", ptr, ptr, %"class.llvm::SmallVector.431", i32, i32 }
%"class.llvm::SmallVector.431" = type { %"class.llvm::SmallVectorImpl.432", %"struct.llvm::SmallVectorStorage.435" }
%"class.llvm::SmallVectorImpl.432" = type { %"class.llvm::SmallVectorTemplateBase.433" }
%"class.llvm::SmallVectorTemplateBase.433" = type { %"class.llvm::SmallVectorTemplateCommon.434" }
%"class.llvm::SmallVectorTemplateCommon.434" = type { %"class.llvm::SmallVectorBase" }
%"struct.llvm::SmallVectorStorage.435" = type { [64 x i8] }
%"class.llvm::MachineInstrBundleIterator" = type { %"class.llvm::ilist_iterator" }
%"class.llvm::ilist_iterator" = type { ptr }
%"class.llvm::DenseMap.436" = type <{ ptr, i32, i32, i32, [4 x i8] }>
%"class.llvm::SparseMultiSet" = type { %"class.llvm::SmallVector.439", ptr, i32, [4 x i8], i32, i32 }
%"class.llvm::SmallVector.439" = type { %"class.llvm::SmallVectorImpl.440", %"struct.llvm::SmallVectorStorage.443" }
%"class.llvm::SmallVectorImpl.440" = type { %"class.llvm::SmallVectorTemplateBase.441" }
%"class.llvm::SmallVectorTemplateBase.441" = type { %"class.llvm::SmallVectorTemplateCommon.442" }
%"class.llvm::SmallVectorTemplateCommon.442" = type { %"class.llvm::SmallVectorBase" }
%"struct.llvm::SmallVectorStorage.443" = type { [192 x i8] }
%"class.llvm::SparseMultiSet.444" = type { %"class.llvm::SmallVector.445", ptr, i32, [4 x i8], i32, i32 }
%"class.llvm::SmallVector.445" = type { %"class.llvm::SmallVectorImpl.446", %"struct.llvm::SmallVectorStorage.449" }
%"class.llvm::SmallVectorImpl.446" = type { %"class.llvm::SmallVectorTemplateBase.447" }
%"class.llvm::SmallVectorTemplateBase.447" = type { %"class.llvm::SmallVectorTemplateCommon.448" }
%"class.llvm::SmallVectorTemplateCommon.448" = type { %"class.llvm::SmallVectorBase" }
%"struct.llvm::SmallVectorStorage.449" = type { [256 x i8] }
%"class.llvm::SparseMultiSet.450" = type { %"class.llvm::SmallVector.451", ptr, i32, [4 x i8], i32, i32 }
%"class.llvm::SmallVector.451" = type { %"class.llvm::SmallVectorImpl.452", %"struct.llvm::SmallVectorStorage.455" }
%"class.llvm::SmallVectorImpl.452" = type { %"class.llvm::SmallVectorTemplateBase.453" }
%"class.llvm::SmallVectorTemplateBase.453" = type { %"class.llvm::SmallVectorTemplateCommon.454" }
%"class.llvm::SmallVectorTemplateCommon.454" = type { %"class.llvm::SmallVectorBase" }
%"struct.llvm::SmallVectorStorage.455" = type { [320 x i8] }
%"class.std::vector.466" = type { %"struct.std::_Vector_base.467" }
%"struct.std::_Vector_base.467" = type { %"struct.std::_Vector_base<std::pair<llvm::MachineInstr *, llvm::MachineInstr *>, std::allocator<std::pair<llvm::MachineInstr *, llvm::MachineInstr *>>>::_Vector_impl" }
%"struct.std::_Vector_base<std::pair<llvm::MachineInstr *, llvm::MachineInstr *>, std::allocator<std::pair<llvm::MachineInstr *, llvm::MachineInstr *>>>::_Vector_impl" = type { %"struct.std::_Vector_base<std::pair<llvm::MachineInstr *, llvm::MachineInstr *>, std::allocator<std::pair<llvm::MachineInstr *, llvm::MachineInstr *>>>::_Vector_impl_data" }
%"struct.std::_Vector_base<std::pair<llvm::MachineInstr *, llvm::MachineInstr *>, std::allocator<std::pair<llvm::MachineInstr *, llvm::MachineInstr *>>>::_Vector_impl_data" = type { ptr, ptr, ptr }
%"class.llvm::LiveRegUnits" = type { ptr, %"class.llvm::BitVector" }
%"class.llvm::ScheduleDAGTopologicalSort" = type { ptr, ptr, i8, %"class.llvm::SmallVector.456", %"class.std::vector.461", %"class.std::vector.461", %"class.llvm::BitVector" }
%"class.llvm::SmallVector.456" = type { %"class.llvm::SmallVectorImpl.457", %"struct.llvm::SmallVectorStorage.460" }
%"class.llvm::SmallVectorImpl.457" = type { %"class.llvm::SmallVectorTemplateBase.458" }
%"class.llvm::SmallVectorTemplateBase.458" = type { %"class.llvm::SmallVectorTemplateCommon.459" }
%"class.llvm::SmallVectorTemplateCommon.459" = type { %"class.llvm::SmallVectorBase" }
%"struct.llvm::SmallVectorStorage.460" = type { [256 x i8] }
%"class.std::vector.461" = type { %"struct.std::_Vector_base.462" }
%"struct.std::_Vector_base.462" = type { %"struct.std::_Vector_base<int, std::allocator<int>>::_Vector_impl" }
%"struct.std::_Vector_base<int, std::allocator<int>>::_Vector_impl" = type { %"struct.std::_Vector_base<int, std::allocator<int>>::_Vector_impl_data" }
%"struct.std::_Vector_base<int, std::allocator<int>>::_Vector_impl_data" = type { ptr, ptr, ptr }
%"class.std::vector.471" = type { %"struct.std::_Vector_base.472" }
%"struct.std::_Vector_base.472" = type { %"struct.std::_Vector_base<llvm::SwingSchedulerDAG::NodeInfo, std::allocator<llvm::SwingSchedulerDAG::NodeInfo>>::_Vector_impl" }
%"struct.std::_Vector_base<llvm::SwingSchedulerDAG::NodeInfo, std::allocator<llvm::SwingSchedulerDAG::NodeInfo>>::_Vector_impl" = type { %"struct.std::_Vector_base<llvm::SwingSchedulerDAG::NodeInfo, std::allocator<llvm::SwingSchedulerDAG::NodeInfo>>::_Vector_impl_data" }
%"struct.std::_Vector_base<llvm::SwingSchedulerDAG::NodeInfo, std::allocator<llvm::SwingSchedulerDAG::NodeInfo>>::_Vector_impl_data" = type { ptr, ptr, ptr }
%"class.llvm::SetVector" = type { %"class.llvm::DenseSet", %"class.llvm::SmallVector.479" }
%"class.llvm::DenseSet" = type { %"class.llvm::detail::DenseSetImpl" }
%"class.llvm::detail::DenseSetImpl" = type { %"class.llvm::DenseMap.476" }
%"class.llvm::DenseMap.476" = type <{ ptr, i32, i32, i32, [4 x i8] }>
%"class.llvm::SmallVector.479" = type { %"class.llvm::SmallVectorImpl.480" }
%"class.llvm::SmallVectorImpl.480" = type { %"class.llvm::SmallVectorTemplateBase.481" }
%"class.llvm::SmallVectorTemplateBase.481" = type { %"class.llvm::SmallVectorTemplateCommon.482" }
%"class.llvm::SmallVectorTemplateCommon.482" = type { %"class.llvm::SmallVectorBase" }
%"class.llvm::DenseMap.484" = type <{ ptr, i32, i32, i32, [4 x i8] }>
%"class.llvm::DenseMap.487" = type <{ ptr, i32, i32, i32, [4 x i8] }>
%"class.std::vector.490" = type { %"struct.std::_Vector_base.491" }
%"struct.std::_Vector_base.491" = type { %"struct.std::_Vector_base<std::unique_ptr<llvm::ScheduleDAGMutation>, std::allocator<std::unique_ptr<llvm::ScheduleDAGMutation>>>::_Vector_impl" }
%"struct.std::_Vector_base<std::unique_ptr<llvm::ScheduleDAGMutation>, std::allocator<std::unique_ptr<llvm::ScheduleDAGMutation>>>::_Vector_impl" = type { %"struct.std::_Vector_base<std::unique_ptr<llvm::ScheduleDAGMutation>, std::allocator<std::unique_ptr<llvm::ScheduleDAGMutation>>>::_Vector_impl_data" }
%"struct.std::_Vector_base<std::unique_ptr<llvm::ScheduleDAGMutation>, std::allocator<std::unique_ptr<llvm::ScheduleDAGMutation>>>::_Vector_impl_data" = type { ptr, ptr, ptr }

@_ZL10SwpForceII = internal global %"class.llvm::cl::opt.0" zeroinitializer, align 8

; Function Attrs: mustprogress nounwind uwtable
define linkonce_odr hidden noundef i32 @_ZNK4llvm2cl11opt_storageIiLb0ELb0EE8getValueEv(ptr noundef nonnull align 8 dereferenceable(24) %0) #1 comdat align 2 {
  %2 = alloca ptr, align 8
  store ptr %0, ptr %2, align 8
  %3 = load ptr, ptr %2, align 8
  %4 = getelementptr inbounds nuw %"class.llvm::cl::opt_storage.1", ptr %3, i32 0, i32 0
  %5 = load i32, ptr %4, align 8
  ret i32 %5
}

; Function Attrs: mustprogress nounwind uwtable
define linkonce_odr noundef nonnull align 4 dereferenceable(4) ptr @_ZSt3maxIjERKT_S2_S2_(ptr noundef nonnull align 4 dereferenceable(4) %0, ptr noundef nonnull align 4 dereferenceable(4) %1) #1 comdat {
  %3 = alloca ptr, align 8
  %4 = alloca ptr, align 8
  %5 = alloca ptr, align 8
  store ptr %0, ptr %4, align 8
  store ptr %1, ptr %5, align 8
  %6 = load ptr, ptr %4, align 8
  %7 = load i32, ptr %6, align 4
  %8 = load ptr, ptr %5, align 8
  %9 = load i32, ptr %8, align 4
  %10 = icmp ult i32 %7, %9
  br i1 %10, label %11, label %13

11:                                               ; preds = %2
  %12 = load ptr, ptr %5, align 8
  store ptr %12, ptr %3, align 8
  br label %15

13:                                               ; preds = %2
  %14 = load ptr, ptr %4, align 8
  store ptr %14, ptr %3, align 8
  br label %15

15:                                               ; preds = %13, %11
  %16 = load ptr, ptr %3, align 8
  ret ptr %16
}

; Function Attrs: mustprogress nounwind uwtable
define linkonce_odr hidden noundef i32 @_ZNK4llvm2cl11opt_storageIiLb0ELb0EEcviEv(ptr noundef nonnull align 8 dereferenceable(24) %0) #1 comdat align 2 {
  %2 = alloca ptr, align 8
  store ptr %0, ptr %2, align 8
  %3 = load ptr, ptr %2, align 8
  %4 = call noundef i32 @_ZNK4llvm2cl11opt_storageIiLb0ELb0EE8getValueEv(ptr noundef nonnull align 8 dereferenceable(24) %3)
  ret i32 %4
}

; Function Attrs: mustprogress nounwind uwtable
define dso_local void @_ZN4llvm17SwingSchedulerDAG6setMIIEjj(ptr noundef nonnull align 8 dereferenceable(3240) %0, i32 noundef %1, i32 noundef %2) #1 align 2 {
  %4 = alloca ptr, align 8
  %5 = alloca i32, align 4
  %6 = alloca i32, align 4
  store ptr %0, ptr %4, align 8
  store i32 %1, ptr %5, align 4
  store i32 %2, ptr %6, align 4
  %7 = load ptr, ptr %4, align 8
  %8 = call noundef i32 @_ZNK4llvm2cl11opt_storageIiLb0ELb0EEcviEv(ptr noundef nonnull align 8 dereferenceable(24) getelementptr inbounds (i8, ptr @_ZL10SwpForceII, i64 128))
  %9 = icmp sgt i32 %8, 0
  br i1 %9, label %10, label %13

10:                                               ; preds = %3
  %11 = call noundef i32 @_ZNK4llvm2cl11opt_storageIiLb0ELb0EEcviEv(ptr noundef nonnull align 8 dereferenceable(24) getelementptr inbounds (i8, ptr @_ZL10SwpForceII, i64 128))
  %12 = getelementptr inbounds nuw %"class.llvm::SwingSchedulerDAG", ptr %7, i32 0, i32 2
  store i32 %11, ptr %12, align 8
  br label %26

13:                                               ; preds = %3
  %14 = getelementptr inbounds nuw %"class.llvm::SwingSchedulerDAG", ptr %7, i32 0, i32 8
  %15 = load i32, ptr %14, align 8
  %16 = icmp ugt i32 %15, 0
  br i1 %16, label %17, label %21

17:                                               ; preds = %13
  %18 = getelementptr inbounds nuw %"class.llvm::SwingSchedulerDAG", ptr %7, i32 0, i32 8
  %19 = load i32, ptr %18, align 8
  %20 = getelementptr inbounds nuw %"class.llvm::SwingSchedulerDAG", ptr %7, i32 0, i32 2
  store i32 %19, ptr %20, align 8
  br label %25

21:                                               ; preds = %13
  %22 = call noundef nonnull align 4 dereferenceable(4) ptr @_ZSt3maxIjERKT_S2_S2_(ptr noundef nonnull align 4 dereferenceable(4) %5, ptr noundef nonnull align 4 dereferenceable(4) %6)
  %23 = load i32, ptr %22, align 4
  %24 = getelementptr inbounds nuw %"class.llvm::SwingSchedulerDAG", ptr %7, i32 0, i32 2
  store i32 %23, ptr %24, align 8
  br label %25

25:                                               ; preds = %21, %17
  br label %26

26:                                               ; preds = %25, %10
  ret void
}