; Function Attrs: mustprogress nofree norecurse nosync nounwind willreturn memory(read, argmem: readwrite, inaccessiblemem: none) uwtable
define dso_local void @_ZN4llvm17SwingSchedulerDAG6setMIIEjj(ptr nocapture noundef nonnull align 8 dereferenceable(3240) %0, i32 noundef %1, i32 noundef %2) local_unnamed_addr #7 align 2 {
  %4 = load i32, ptr getelementptr inbounds (i8, ptr @_ZL10SwpForceII, i64 128), align 8
  %5 = icmp sgt i32 %4, 0
  br i1 %5, label %10, label %6

6:                                                ; preds = %3
  %7 = getelementptr inbounds nuw i8, ptr %0, i64 2672
  %8 = load i32, ptr %7, align 8
  %.not = icmp eq i32 %8, 0
  br i1 %.not, label %9, label %10

9:                                                ; preds = %6
  %.sroa.speculated = tail call i32 @llvm.umax.i32(i32 %1, i32 %2)
  br label %10

10:                                               ; preds = %6, %3, %9
  %.sink = phi i32 [ %.sroa.speculated, %9 ], [ %4, %3 ], [ %8, %6 ]
  %11 = getelementptr inbounds nuw i8, ptr %0, i64 2632
  store i32 %.sink, ptr %11, align 8
  ret void
}